target datalayout = "e-m:e-p270:32:32-p271:32:32-p272:64:64-i64:64-i128:128-f80:128-n8:16:32:64-S128"
target triple = "x86_64-pc-linux-gnu"

%struct.evp_pkey_ctx_st = type { i32, ptr, ptr, ptr, ptr, %union.anon, %struct.anon.4, ptr, ptr, ptr, i32, i32, ptr, ptr, ptr, ptr, ptr, i8, ptr }
%union.anon = type { %struct.anon.0 }
%struct.anon.0 = type { ptr, ptr }
%struct.anon.4 = type { ptr, ptr, i64, i8 }

@.str = private unnamed_addr constant [33 x i8] c"../openssl/crypto/evp/pmeth_gn.c\00", align 1
@__func__.EVP_PKEY_fromdata = private unnamed_addr constant [18 x i8] c"EVP_PKEY_fromdata\00", align 1

; Function Attrs: nounwind uwtable
define i32 @EVP_PKEY_fromdata(ptr noundef %0, ptr noundef %1, i32 noundef %2, ptr noundef %3) #0 {
  %5 = alloca i32, align 4
  %6 = alloca ptr, align 8
  %7 = alloca ptr, align 8
  %8 = alloca i32, align 4
  %9 = alloca ptr, align 8
  %10 = alloca ptr, align 8
  %11 = alloca ptr, align 8
  %12 = alloca i32, align 4
  store ptr %0, ptr %6, align 8, !tbaa !3
  store ptr %1, ptr %7, align 8, !tbaa !34
  store i32 %2, ptr %8, align 4, !tbaa !8
  store ptr %3, ptr %9, align 8, !tbaa !54
  call void @llvm.lifetime.start.p0(i64 8, ptr %10) #4
  store ptr null, ptr %10, align 8, !tbaa !43
  call void @llvm.lifetime.start.p0(i64 8, ptr %11) #4
  store ptr null, ptr %11, align 8, !tbaa !36
  %13 = load ptr, ptr %6, align 8, !tbaa !3
  %14 = icmp eq ptr %13, null
  br i1 %14, label %21, label %15

15:                                               ; preds = %4
  %16 = load ptr, ptr %6, align 8, !tbaa !3
  %17 = getelementptr inbounds nuw %struct.evp_pkey_ctx_st, ptr %16, i32 0, i32 0
  %18 = load i32, ptr %17, align 8, !tbaa !10
  %19 = and i32 %18, 8
  %20 = icmp eq i32 %19, 0
  br i1 %20, label %21, label %22

21:                                               ; preds = %15, %4
  call void @ERR_new()
  call void @ERR_set_debug(ptr noundef @.str, i32 noundef 370, ptr noundef @__func__.EVP_PKEY_fromdata)
  call void (i32, i32, ptr, ...) @ERR_set_error(i32 noundef 6, i32 noundef 150, ptr noundef null)
  store i32 -2, ptr %5, align 4
  store i32 1, ptr %12, align 4
  br label %57

22:                                               ; preds = %15
  %23 = load ptr, ptr %7, align 8, !tbaa !34
  %24 = icmp eq ptr %23, null
  br i1 %24, label %25, label %26

25:                                               ; preds = %22
  store i32 -1, ptr %5, align 4
  store i32 1, ptr %12, align 4
  br label %57

26:                                               ; preds = %22
  %27 = load ptr, ptr %7, align 8, !tbaa !34
  %28 = load ptr, ptr %27, align 8, !tbaa !36
  %29 = icmp eq ptr %28, null
  br i1 %29, label %30, label %33

30:                                               ; preds = %26
  %31 = call ptr @EVP_PKEY_new()
  %32 = load ptr, ptr %7, align 8, !tbaa !34
  store ptr %31, ptr %32, align 8, !tbaa !36
  store ptr %31, ptr %11, align 8, !tbaa !36
  br label %33

33:                                               ; preds = %30, %26
  %34 = load ptr, ptr %7, align 8, !tbaa !34
  %35 = load ptr, ptr %34, align 8, !tbaa !36
  %36 = icmp eq ptr %35, null
  br i1 %36, label %37, label %38

37:                                               ; preds = %33
  call void @ERR_new()
  call void @ERR_set_debug(ptr noundef @.str, i32 noundef 381, ptr noundef @__func__.EVP_PKEY_fromdata)
  call void (i32, i32, ptr, ...) @ERR_set_error(i32 noundef 6, i32 noundef 524294, ptr noundef null)
  store i32 -1, ptr %5, align 4
  store i32 1, ptr %12, align 4
  br label %57

38:                                               ; preds = %33
  %39 = load ptr, ptr %7, align 8, !tbaa !34
  %40 = load ptr, ptr %39, align 8, !tbaa !36
  %41 = load ptr, ptr %6, align 8, !tbaa !3
  %42 = getelementptr inbounds nuw %struct.evp_pkey_ctx_st, ptr %41, i32 0, i32 4
  %43 = load ptr, ptr %42, align 8, !tbaa !22
  %44 = load i32, ptr %8, align 4, !tbaa !8
  %45 = load ptr, ptr %9, align 8, !tbaa !54
  %46 = call ptr @evp_keymgmt_util_fromdata(ptr noundef %40, ptr noundef %43, i32 noundef %44, ptr noundef %45)
  store ptr %46, ptr %10, align 8, !tbaa !43
  %47 = load ptr, ptr %10, align 8, !tbaa !43
  %48 = icmp eq ptr %47, null
  br i1 %48, label %49, label %56

49:                                               ; preds = %38
  %50 = load ptr, ptr %11, align 8, !tbaa !36
  %51 = icmp ne ptr %50, null
  br i1 %51, label %52, label %55

52:                                               ; preds = %49
  %53 = load ptr, ptr %7, align 8, !tbaa !34
  store ptr null, ptr %53, align 8, !tbaa !36
  %54 = load ptr, ptr %11, align 8, !tbaa !36
  call void @EVP_PKEY_free(ptr noundef %54)
  br label %55

55:                                               ; preds = %52, %49
  store i32 0, ptr %5, align 4
  store i32 1, ptr %12, align 4
  br label %57

56:                                               ; preds = %38
  store i32 1, ptr %5, align 4
  store i32 1, ptr %12, align 4
  br label %57

57:                                               ; preds = %56, %55, %37, %25, %21
  call void @llvm.lifetime.end.p0(i64 8, ptr %11) #4
  call void @llvm.lifetime.end.p0(i64 8, ptr %10) #4
  %58 = load i32, ptr %5, align 4
  ret i32 %58
}