; Function Attrs: nounwind uwtable
define range(i32 -2, 2) i32 @EVP_PKEY_fromdata(ptr noundef readonly captures(address_is_null) %0, ptr noundef captures(address_is_null) %1, i32 noundef %2, ptr noundef %3) local_unnamed_addr #0 {
  %5 = icmp eq ptr %0, null
  br i1 %5, label %10, label %6

6:                                                ; preds = %4
  %7 = load i32, ptr %0, align 8, !tbaa !3
  %8 = and i32 %7, 8
  %9 = icmp eq i32 %8, 0
  br i1 %9, label %10, label %11

10:                                               ; preds = %6, %4
  tail call void @ERR_new() #6
  tail call void @ERR_set_debug(ptr noundef nonnull @.str, i32 noundef 370, ptr noundef nonnull @__func__.EVP_PKEY_fromdata) #6
  tail call void (i32, i32, ptr, ...) @ERR_set_error(i32 noundef 6, i32 noundef 150, ptr noundef null) #6
  br label %27

11:                                               ; preds = %6
  %12 = icmp eq ptr %1, null
  br i1 %12, label %27, label %13

13:                                               ; preds = %11
  %14 = load ptr, ptr %1, align 8, !tbaa !31
  %15 = icmp eq ptr %14, null
  br i1 %15, label %16, label %.thread

16:                                               ; preds = %13
  %17 = tail call ptr @EVP_PKEY_new() #6
  store ptr %17, ptr %1, align 8, !tbaa !31
  %18 = icmp eq ptr %17, null
  br i1 %18, label %19, label %.thread

19:                                               ; preds = %16
  tail call void @ERR_new() #6
  tail call void @ERR_set_debug(ptr noundef nonnull @.str, i32 noundef 381, ptr noundef nonnull @__func__.EVP_PKEY_fromdata) #6
  tail call void (i32, i32, ptr, ...) @ERR_set_error(i32 noundef 6, i32 noundef 524294, ptr noundef null) #6
  br label %27

.thread:                                          ; preds = %13, %16
  %.019 = phi ptr [ %17, %16 ], [ null, %13 ]
  %20 = phi ptr [ %17, %16 ], [ %14, %13 ]
  %21 = getelementptr inbounds nuw i8, ptr %0, i64 32
  %22 = load ptr, ptr %21, align 8, !tbaa !19
  %23 = tail call ptr @evp_keymgmt_util_fromdata(ptr noundef nonnull %20, ptr noundef %22, i32 noundef %2, ptr noundef %3) #6
  %24 = icmp eq ptr %23, null
  br i1 %24, label %25, label %27

25:                                               ; preds = %.thread
  %.not = icmp eq ptr %.019, null
  br i1 %.not, label %27, label %26

26:                                               ; preds = %25
  store ptr null, ptr %1, align 8, !tbaa !31
  tail call void @EVP_PKEY_free(ptr noundef nonnull %.019) #6
  br label %27

27:                                               ; preds = %.thread, %25, %26, %11, %19, %10
  %.014 = phi i32 [ -2, %10 ], [ -1, %19 ], [ -1, %11 ], [ 0, %26 ], [ 0, %25 ], [ 1, %.thread ]
  ret i32 %.014
}